; ModuleID = '49/430.c'
source_filename = "49/430.c"
target datalayout = "e-m:e-p270:32:32-p271:32:32-p272:64:64-i64:64-f80:128-n8:16:32:64-S128"
target triple = "x86_64-pc-linux-gnu"

@.str = private unnamed_addr constant [3 x i8] c"%c\00", align 1
@.str.1 = private unnamed_addr constant [2 x i8] c"\0A\00", align 1

; Function Attrs: noinline nounwind uwtable
define dso_local i32 @main(i32 %0, i8** %1) #0 {
  %3 = alloca i32, align 4
  %4 = alloca i32, align 4
  %5 = alloca i8**, align 8
  %6 = alloca i32, align 4
  %7 = alloca i32, align 4
  %8 = alloca i32, align 4
  %9 = alloca i32, align 4
  %10 = alloca [500 x i8], align 16
  store i32 0, i32* %3, align 4
  store i32 %0, i32* %4, align 4
  store i8** %1, i8*** %5, align 8
  store i32 0, i32* %9, align 4
  %11 = bitcast [500 x i8]* %10 to i8*
  call void @llvm.memset.p0i8.i64(i8* align 16 %11, i8 0, i64 500, i1 false)
  %12 = getelementptr inbounds [500 x i8], [500 x i8]* %10, i64 0, i64 0
  %13 = call i32 (i8*, ...) bitcast (i32 (...)* @gets to i32 (i8*, ...)*)(i8* %12)
  store i32 0, i32* %6, align 4
  br label %14

14:                                               ; preds = %27, %2
  %15 = load i32, i32* %6, align 4
  %16 = icmp slt i32 %15, 500
  br i1 %16, label %17, label %30

17:                                               ; preds = %14
  %18 = load i32, i32* %6, align 4
  %19 = sext i32 %18 to i64
  %20 = getelementptr inbounds [500 x i8], [500 x i8]* %10, i64 0, i64 %19
  %21 = load i8, i8* %20, align 1
  %22 = sext i8 %21 to i32
  %23 = icmp eq i32 %22, 0
  br i1 %23, label %24, label %26

24:                                               ; preds = %17
  %25 = load i32, i32* %6, align 4
  store i32 %25, i32* %9, align 4
  br label %30

26:                                               ; preds = %17
  br label %27

27:                                               ; preds = %26
  %28 = load i32, i32* %6, align 4
  %29 = add nsw i32 %28, 1
  store i32 %29, i32* %6, align 4
  br label %14

30:                                               ; preds = %24, %14
  store i32 1, i32* %6, align 4
  br label %31

31:                                               ; preds = %104, %30
  %32 = load i32, i32* %6, align 4
  %33 = load i32, i32* %9, align 4
  %34 = icmp slt i32 %32, %33
  br i1 %34, label %35, label %107

35:                                               ; preds = %31
  store i32 0, i32* %7, align 4
  br label %36

36:                                               ; preds = %100, %35
  %37 = load i32, i32* %7, align 4
  %38 = load i32, i32* %6, align 4
  %39 = add nsw i32 %37, %38
  %40 = load i32, i32* %9, align 4
  %41 = icmp slt i32 %39, %40
  br i1 %41, label %42, label %103

42:                                               ; preds = %36
  %43 = load i32, i32* %7, align 4
  store i32 %43, i32* %8, align 4
  br label %44

44:                                               ; preds = %69, %42
  %45 = load i32, i32* %8, align 4
  %46 = load i32, i32* %7, align 4
  %47 = load i32, i32* %6, align 4
  %48 = add nsw i32 %46, %47
  %49 = icmp sle i32 %45, %48
  br i1 %49, label %50, label %72

50:                                               ; preds = %44
  %51 = load i32, i32* %8, align 4
  %52 = sext i32 %51 to i64
  %53 = getelementptr inbounds [500 x i8], [500 x i8]* %10, i64 0, i64 %52
  %54 = load i8, i8* %53, align 1
  %55 = sext i8 %54 to i32
  %56 = load i32, i32* %7, align 4
  %57 = mul nsw i32 2, %56
  %58 = load i32, i32* %6, align 4
  %59 = add nsw i32 %57, %58
  %60 = load i32, i32* %8, align 4
  %61 = sub nsw i32 %59, %60
  %62 = sext i32 %61 to i64
  %63 = getelementptr inbounds [500 x i8], [500 x i8]* %10, i64 0, i64 %62
  %64 = load i8, i8* %63, align 1
  %65 = sext i8 %64 to i32
  %66 = icmp ne i32 %55, %65
  br i1 %66, label %67, label %68

67:                                               ; preds = %50
  br label %72

68:                                               ; preds = %50
  br label %69

69:                                               ; preds = %68
  %70 = load i32, i32* %8, align 4
  %71 = add nsw i32 %70, 1
  store i32 %71, i32* %8, align 4
  br label %44

72:                                               ; preds = %67, %44
  %73 = load i32, i32* %8, align 4
  %74 = load i32, i32* %7, align 4
  %75 = load i32, i32* %6, align 4
  %76 = add nsw i32 %74, %75
  %77 = add nsw i32 %76, 1
  %78 = icmp eq i32 %73, %77
  br i1 %78, label %79, label %99

79:                                               ; preds = %72
  %80 = load i32, i32* %7, align 4
  store i32 %80, i32* %8, align 4
  br label %81

81:                                               ; preds = %94, %79
  %82 = load i32, i32* %8, align 4
  %83 = load i32, i32* %7, align 4
  %84 = load i32, i32* %6, align 4
  %85 = add nsw i32 %83, %84
  %86 = icmp sle i32 %82, %85
  br i1 %86, label %87, label %97

87:                                               ; preds = %81
  %88 = load i32, i32* %8, align 4
  %89 = sext i32 %88 to i64
  %90 = getelementptr inbounds [500 x i8], [500 x i8]* %10, i64 0, i64 %89
  %91 = load i8, i8* %90, align 1
  %92 = sext i8 %91 to i32
  %93 = call i32 (i8*, ...) @printf(i8* getelementptr inbounds ([3 x i8], [3 x i8]* @.str, i64 0, i64 0), i32 %92)
  br label %94

94:                                               ; preds = %87
  %95 = load i32, i32* %8, align 4
  %96 = add nsw i32 %95, 1
  store i32 %96, i32* %8, align 4
  br label %81

97:                                               ; preds = %81
  %98 = call i32 (i8*, ...) @printf(i8* getelementptr inbounds ([2 x i8], [2 x i8]* @.str.1, i64 0, i64 0))
  br label %99

99:                                               ; preds = %97, %72
  br label %100

100:                                              ; preds = %99
  %101 = load i32, i32* %7, align 4
  %102 = add nsw i32 %101, 1
  store i32 %102, i32* %7, align 4
  br label %36

103:                                              ; preds = %36
  br label %104

104:                                              ; preds = %103
  %105 = load i32, i32* %6, align 4
  %106 = add nsw i32 %105, 1
  store i32 %106, i32* %6, align 4
  br label %31

107:                                              ; preds = %31
  ret i32 0
}

; Function Attrs: argmemonly nounwind willreturn
declare void @llvm.memset.p0i8.i64(i8* nocapture writeonly, i8, i64, i1 immarg) #1

declare dso_local i32 @gets(...) #2

declare dso_local i32 @printf(i8*, ...) #2


!llvm.module.flags = !{!0}
!llvm.ident = !{!1}

!0 = !{i32 1, !"wchar_size", i32 4}
!1 = !{!"clang version 10.0.0-4ubuntu1 "}
